; Function Attrs: mustprogress nounwind uwtable
define hidden void @_ZN8jniCheck24validate_throwable_klassEP10JavaThreadP5Klass(ptr noundef %0, ptr noundef %1) local_unnamed_addr #0 align 2 {
  %3 = getelementptr inbounds i8, ptr %1, i64 12
  %4 = load i32, ptr %3, align 4
  %5 = icmp slt i32 %4, 5
  br i1 %5, label %6, label %9

6:                                                ; preds = %2
  %7 = load ptr, ptr getelementptr inbounds (i8, ptr @_ZN9vmClasses8_klassesE, i64 56), align 8
  %8 = tail call noundef zeroext i1 @_ZNK5Klass14is_subclass_ofEPKS_(ptr noundef nonnull align 8 dereferenceable(196) %1, ptr noundef %7) #11
  br i1 %8, label %11, label %9

9:                                                ; preds = %6, %2
  %10 = load ptr, ptr @tty, align 8
  tail call void (ptr, ptr, ...) @_ZN12outputStream8print_crEPKcz(ptr noundef nonnull align 8 dereferenceable(56) %10, ptr noundef nonnull @.str.126, ptr noundef nonnull @.str.137) #11
  tail call void @_ZN10JavaThread15print_jni_stackEv(ptr noundef nonnull align 8 dereferenceable(1800) %0) #11
  tail call void @_ZN2os5abortEb(i1 noundef zeroext true) #12
  unreachable

11:                                               ; preds = %6
  ret void
}